; Function Attrs: nounwind sspstrong uwtable
define dso_local void @rb_free_generic_ivar(i64 noundef %0) local_unnamed_addr #0 {
  %2 = alloca i64, align 8
  %3 = alloca i64, align 8
  call void @llvm.lifetime.start.p0(i64 8, ptr nonnull %2) #27
  store i64 %0, ptr %2, align 8, !tbaa !14
  call void @llvm.lifetime.start.p0(i64 8, ptr nonnull %3) #27
  %4 = tail call zeroext i1 @rb_shape_obj_too_complex(i64 noundef %0) #27
  %5 = tail call i32 @rb_is_instance_id(i64 noundef 0) #32
  %.not.i.i = icmp eq i32 %5, 0
  br i1 %.not.i.i, label %generic_ivtbl_no_ractor_check.exit, label %6, !prof !93

6:                                                ; preds = %1
  %7 = inttoptr i64 %0 to ptr
  %8 = load i64, ptr %7, align 8, !tbaa !28
  %9 = and i64 %8, 2048
  %.not4.i.i = icmp eq i64 %9, 0
  %10 = load ptr, ptr @ruby_single_main_ractor, align 8
  %.not.i.i.i = icmp eq ptr %10, null
  %or.cond.i.i = select i1 %.not4.i.i, i1 %.not.i.i.i, i1 false
  br i1 %or.cond.i.i, label %rb_ractor_main_p.exit.i.i, label %generic_ivtbl_no_ractor_check.exit

rb_ractor_main_p.exit.i.i:                        ; preds = %6
  %11 = tail call zeroext i1 @rb_ractor_main_p_() #27
  br i1 %11, label %generic_ivtbl_no_ractor_check.exit, label %12, !prof !70

12:                                               ; preds = %rb_ractor_main_p.exit.i.i
  %13 = tail call fastcc zeroext i1 @rb_ractor_shareable_p(i64 noundef %0)
  br i1 %13, label %14, label %generic_ivtbl_no_ractor_check.exit, !prof !93

14:                                               ; preds = %12
  %15 = load i64, ptr @rb_eRactorIsolationError, align 8, !tbaa !14
  tail call void (i64, ptr, ...) @rb_raise(i64 noundef %15, ptr noundef nonnull @.str.41) #28
  unreachable

generic_ivtbl_no_ractor_check.exit:               ; preds = %1, %6, %rb_ractor_main_p.exit.i.i, %12
  %16 = load ptr, ptr @generic_iv_tbl_, align 8, !tbaa !12
  %17 = call i32 @rb_st_delete(ptr noundef %16, ptr noundef nonnull %2, ptr noundef nonnull %3) #27
  %.not = icmp eq i32 %17, 0
  br i1 %.not, label %24, label %18

18:                                               ; preds = %generic_ivtbl_no_ractor_check.exit
  %19 = load i64, ptr %3, align 8, !tbaa !14
  %20 = inttoptr i64 %19 to ptr
  br i1 %4, label %21, label %23, !prof !93

21:                                               ; preds = %18
  %22 = load ptr, ptr %20, align 8, !tbaa !32
  call void @rb_st_free_table(ptr noundef %22) #27
  br label %23

23:                                               ; preds = %21, %18
  call void @ruby_xfree(ptr noundef %20) #27
  br label %24

24:                                               ; preds = %23, %generic_ivtbl_no_ractor_check.exit
  call void @llvm.lifetime.end.p0(i64 8, ptr nonnull %3) #27
  call void @llvm.lifetime.end.p0(i64 8, ptr nonnull %2) #27
  ret void
}